target datalayout = "e-m:e-p270:32:32-p271:32:32-p272:64:64-i64:64-i128:128-f80:128-n8:16:32:64-S128"
target triple = "x86_64-pc-linux-gnu"

%struct.SDL_Renderer = type { ptr, ptr, ptr, ptr, ptr, ptr, ptr, ptr, ptr, ptr, ptr, ptr, ptr, ptr, ptr, ptr, ptr, ptr, ptr, ptr, ptr, ptr, ptr, ptr, ptr, ptr, ptr, ptr, ptr, ptr, i32, i8, ptr, i8, i8, i8, i64, i64, ptr, %struct.SDL_RenderViewState, %struct.SDL_FPoint, i32, i32, ptr, ptr, ptr, i32, float, float, float, float, %struct.SDL_FColor, i32, i32, i32, ptr, ptr, ptr, ptr, i32, %struct.SDL_FColor, float, %struct.SDL_Rect, %struct.SDL_Rect, i8, i8, i8, i8, ptr, i64, i64, i8, ptr, ptr, i32, ptr, i8, ptr, ptr }
%struct.SDL_RenderViewState = type { i32, i32, %struct.SDL_Rect, %struct.SDL_Rect, %struct.SDL_Rect, %struct.SDL_Rect, i8, %struct.SDL_FPoint, i32, i32, i32, %struct.SDL_FRect, %struct.SDL_FRect, %struct.SDL_FPoint, %struct.SDL_FPoint, %struct.SDL_FPoint }
%struct.SDL_FRect = type { float, float, float, float }
%struct.SDL_FPoint = type { float, float }
%struct.SDL_FColor = type { float, float, float, float }
%struct.SDL_Rect = type { i32, i32, i32, i32 }
%struct.GL_RenderData = type { ptr, i8, i8, i32, ptr, ptr, ptr, i32, i8, i8, i8, ptr, ptr, ptr, ptr, ptr, ptr, ptr, ptr, ptr, ptr, ptr, ptr, ptr, ptr, ptr, ptr, ptr, ptr, ptr, ptr, ptr, ptr, ptr, ptr, ptr, ptr, ptr, ptr, ptr, ptr, ptr, ptr, ptr, ptr, ptr, ptr, ptr, ptr, ptr, ptr, ptr, ptr, ptr, ptr, ptr, ptr, ptr, ptr, ptr, i8, ptr, i32, ptr, ptr, ptr, ptr, ptr, ptr, %struct.GL_DrawStateCache }
%struct.GL_DrawStateCache = type { i8, %struct.SDL_Rect, ptr, ptr, i32, i32, i32, i32, [4 x float], ptr, i8, i8, i8, %struct.SDL_Rect, i8, i8, i8, i8, i8, i8, %struct.SDL_FColor, i8, %struct.SDL_FColor }
%struct.SDL_Texture = type { i32, i32, i32, i32, i32, float, float, i32, i32, i32, %struct.SDL_FColor, %struct.SDL_RenderViewState, ptr, ptr, ptr, ptr, i32, %struct.SDL_Rect, ptr, i32, i32, ptr, ptr, ptr }
%struct.GL_TextureData = type { i32, i8, float, float, i32, i32, i32, [4 x float], ptr, ptr, i32, %struct.SDL_Rect, i8, i8, i32, i8, i32, i8, i32, i32, i32, ptr }

@.str.25 = private unnamed_addr constant [119 x i8] c"generated/home/dtcxzyw/WorkSpace/Projects/compilers/llvm-opt-benchmark/bench/sdl/SDL/src/render/opengl/SDL_render_gl.c\00", align 1
@.str.53 = private unnamed_addr constant [18 x i8] c"glTexSubImage2D()\00", align 1
@__func__.GL_UpdateTextureYUV = private unnamed_addr constant [20 x i8] c"GL_UpdateTextureYUV\00", align 1

; Function Attrs: nounwind uwtable
define internal zeroext i1 @GL_UpdateTextureYUV(ptr noundef %0, ptr noundef %1, ptr noundef %2, ptr noundef %3, i32 noundef %4, ptr noundef %5, i32 noundef %6, ptr noundef %7, i32 noundef %8) #0 {
  %10 = alloca ptr, align 8
  %11 = alloca ptr, align 8
  %12 = alloca ptr, align 8
  %13 = alloca ptr, align 8
  %14 = alloca i32, align 4
  %15 = alloca ptr, align 8
  %16 = alloca i32, align 4
  %17 = alloca ptr, align 8
  %18 = alloca i32, align 4
  %19 = alloca ptr, align 8
  %20 = alloca i32, align 4
  %21 = alloca ptr, align 8
  store ptr %0, ptr %10, align 8
  store ptr %1, ptr %11, align 8
  store ptr %2, ptr %12, align 8
  store ptr %3, ptr %13, align 8
  store i32 %4, ptr %14, align 4
  store ptr %5, ptr %15, align 8
  store i32 %6, ptr %16, align 4
  store ptr %7, ptr %17, align 8
  store i32 %8, ptr %18, align 4
  call void @llvm.lifetime.start.p0(i64 8, ptr %19) #4
  %22 = load ptr, ptr %10, align 8
  %23 = getelementptr inbounds nuw %struct.SDL_Renderer, ptr %22, i32 0, i32 77
  %24 = load ptr, ptr %23, align 8
  store ptr %24, ptr %19, align 8
  call void @llvm.lifetime.start.p0(i64 4, ptr %20) #4
  %25 = load ptr, ptr %19, align 8
  %26 = getelementptr inbounds nuw %struct.GL_RenderData, ptr %25, i32 0, i32 7
  %27 = load i32, ptr %26, align 8
  store i32 %27, ptr %20, align 4
  call void @llvm.lifetime.start.p0(i64 8, ptr %21) #4
  %28 = load ptr, ptr %11, align 8
  %29 = getelementptr inbounds nuw %struct.SDL_Texture, ptr %28, i32 0, i32 21
  %30 = load ptr, ptr %29, align 8
  store ptr %30, ptr %21, align 8
  %31 = load ptr, ptr %10, align 8
  %32 = call zeroext i1 @GL_ActivateRenderer(ptr noundef %31)
  %33 = load ptr, ptr %19, align 8
  %34 = getelementptr inbounds nuw %struct.GL_RenderData, ptr %33, i32 0, i32 69
  %35 = getelementptr inbounds nuw %struct.GL_DrawStateCache, ptr %34, i32 0, i32 2
  store ptr null, ptr %35, align 8
  %36 = load ptr, ptr %19, align 8
  %37 = getelementptr inbounds nuw %struct.GL_RenderData, ptr %36, i32 0, i32 13
  %38 = load ptr, ptr %37, align 8
  %39 = load i32, ptr %20, align 4
  %40 = load ptr, ptr %21, align 8
  %41 = getelementptr inbounds nuw %struct.GL_TextureData, ptr %40, i32 0, i32 0
  %42 = load i32, ptr %41, align 8
  call void %38(i32 noundef %39, i32 noundef %42)
  %43 = load ptr, ptr %19, align 8
  %44 = getelementptr inbounds nuw %struct.GL_RenderData, ptr %43, i32 0, i32 41
  %45 = load ptr, ptr %44, align 8
  call void %45(i32 noundef 3317, i32 noundef 1)
  %46 = load ptr, ptr %19, align 8
  %47 = getelementptr inbounds nuw %struct.GL_RenderData, ptr %46, i32 0, i32 41
  %48 = load ptr, ptr %47, align 8
  %49 = load i32, ptr %14, align 4
  call void %48(i32 noundef 3314, i32 noundef %49)
  %50 = load ptr, ptr %19, align 8
  %51 = getelementptr inbounds nuw %struct.GL_RenderData, ptr %50, i32 0, i32 55
  %52 = load ptr, ptr %51, align 8
  %53 = load i32, ptr %20, align 4
  %54 = load ptr, ptr %12, align 8
  %55 = getelementptr inbounds nuw %struct.SDL_Rect, ptr %54, i32 0, i32 0
  %56 = load i32, ptr %55, align 4
  %57 = load ptr, ptr %12, align 8
  %58 = getelementptr inbounds nuw %struct.SDL_Rect, ptr %57, i32 0, i32 1
  %59 = load i32, ptr %58, align 4
  %60 = load ptr, ptr %12, align 8
  %61 = getelementptr inbounds nuw %struct.SDL_Rect, ptr %60, i32 0, i32 2
  %62 = load i32, ptr %61, align 4
  %63 = load ptr, ptr %12, align 8
  %64 = getelementptr inbounds nuw %struct.SDL_Rect, ptr %63, i32 0, i32 3
  %65 = load i32, ptr %64, align 4
  %66 = load ptr, ptr %21, align 8
  %67 = getelementptr inbounds nuw %struct.GL_TextureData, ptr %66, i32 0, i32 4
  %68 = load i32, ptr %67, align 8
  %69 = load ptr, ptr %21, align 8
  %70 = getelementptr inbounds nuw %struct.GL_TextureData, ptr %69, i32 0, i32 5
  %71 = load i32, ptr %70, align 4
  %72 = load ptr, ptr %13, align 8
  call void %52(i32 noundef %53, i32 noundef 0, i32 noundef %56, i32 noundef %59, i32 noundef %62, i32 noundef %65, i32 noundef %68, i32 noundef %71, ptr noundef %72)
  %73 = load ptr, ptr %19, align 8
  %74 = getelementptr inbounds nuw %struct.GL_RenderData, ptr %73, i32 0, i32 41
  %75 = load ptr, ptr %74, align 8
  %76 = load i32, ptr %16, align 4
  call void %75(i32 noundef 3314, i32 noundef %76)
  %77 = load ptr, ptr %19, align 8
  %78 = getelementptr inbounds nuw %struct.GL_RenderData, ptr %77, i32 0, i32 13
  %79 = load ptr, ptr %78, align 8
  %80 = load i32, ptr %20, align 4
  %81 = load ptr, ptr %21, align 8
  %82 = getelementptr inbounds nuw %struct.GL_TextureData, ptr %81, i32 0, i32 14
  %83 = load i32, ptr %82, align 8
  call void %79(i32 noundef %80, i32 noundef %83)
  %84 = load ptr, ptr %19, align 8
  %85 = getelementptr inbounds nuw %struct.GL_RenderData, ptr %84, i32 0, i32 55
  %86 = load ptr, ptr %85, align 8
  %87 = load i32, ptr %20, align 4
  %88 = load ptr, ptr %12, align 8
  %89 = getelementptr inbounds nuw %struct.SDL_Rect, ptr %88, i32 0, i32 0
  %90 = load i32, ptr %89, align 4
  %91 = sdiv i32 %90, 2
  %92 = load ptr, ptr %12, align 8
  %93 = getelementptr inbounds nuw %struct.SDL_Rect, ptr %92, i32 0, i32 1
  %94 = load i32, ptr %93, align 4
  %95 = sdiv i32 %94, 2
  %96 = load ptr, ptr %12, align 8
  %97 = getelementptr inbounds nuw %struct.SDL_Rect, ptr %96, i32 0, i32 2
  %98 = load i32, ptr %97, align 4
  %99 = add nsw i32 %98, 1
  %100 = sdiv i32 %99, 2
  %101 = load ptr, ptr %12, align 8
  %102 = getelementptr inbounds nuw %struct.SDL_Rect, ptr %101, i32 0, i32 3
  %103 = load i32, ptr %102, align 4
  %104 = add nsw i32 %103, 1
  %105 = sdiv i32 %104, 2
  %106 = load ptr, ptr %21, align 8
  %107 = getelementptr inbounds nuw %struct.GL_TextureData, ptr %106, i32 0, i32 4
  %108 = load i32, ptr %107, align 8
  %109 = load ptr, ptr %21, align 8
  %110 = getelementptr inbounds nuw %struct.GL_TextureData, ptr %109, i32 0, i32 5
  %111 = load i32, ptr %110, align 4
  %112 = load ptr, ptr %15, align 8
  call void %86(i32 noundef %87, i32 noundef 0, i32 noundef %91, i32 noundef %95, i32 noundef %100, i32 noundef %105, i32 noundef %108, i32 noundef %111, ptr noundef %112)
  %113 = load ptr, ptr %19, align 8
  %114 = getelementptr inbounds nuw %struct.GL_RenderData, ptr %113, i32 0, i32 41
  %115 = load ptr, ptr %114, align 8
  %116 = load i32, ptr %18, align 4
  call void %115(i32 noundef 3314, i32 noundef %116)
  %117 = load ptr, ptr %19, align 8
  %118 = getelementptr inbounds nuw %struct.GL_RenderData, ptr %117, i32 0, i32 13
  %119 = load ptr, ptr %118, align 8
  %120 = load i32, ptr %20, align 4
  %121 = load ptr, ptr %21, align 8
  %122 = getelementptr inbounds nuw %struct.GL_TextureData, ptr %121, i32 0, i32 16
  %123 = load i32, ptr %122, align 8
  call void %119(i32 noundef %120, i32 noundef %123)
  %124 = load ptr, ptr %19, align 8
  %125 = getelementptr inbounds nuw %struct.GL_RenderData, ptr %124, i32 0, i32 55
  %126 = load ptr, ptr %125, align 8
  %127 = load i32, ptr %20, align 4
  %128 = load ptr, ptr %12, align 8
  %129 = getelementptr inbounds nuw %struct.SDL_Rect, ptr %128, i32 0, i32 0
  %130 = load i32, ptr %129, align 4
  %131 = sdiv i32 %130, 2
  %132 = load ptr, ptr %12, align 8
  %133 = getelementptr inbounds nuw %struct.SDL_Rect, ptr %132, i32 0, i32 1
  %134 = load i32, ptr %133, align 4
  %135 = sdiv i32 %134, 2
  %136 = load ptr, ptr %12, align 8
  %137 = getelementptr inbounds nuw %struct.SDL_Rect, ptr %136, i32 0, i32 2
  %138 = load i32, ptr %137, align 4
  %139 = add nsw i32 %138, 1
  %140 = sdiv i32 %139, 2
  %141 = load ptr, ptr %12, align 8
  %142 = getelementptr inbounds nuw %struct.SDL_Rect, ptr %141, i32 0, i32 3
  %143 = load i32, ptr %142, align 4
  %144 = add nsw i32 %143, 1
  %145 = sdiv i32 %144, 2
  %146 = load ptr, ptr %21, align 8
  %147 = getelementptr inbounds nuw %struct.GL_TextureData, ptr %146, i32 0, i32 4
  %148 = load i32, ptr %147, align 8
  %149 = load ptr, ptr %21, align 8
  %150 = getelementptr inbounds nuw %struct.GL_TextureData, ptr %149, i32 0, i32 5
  %151 = load i32, ptr %150, align 4
  %152 = load ptr, ptr %17, align 8
  call void %126(i32 noundef %127, i32 noundef 0, i32 noundef %131, i32 noundef %135, i32 noundef %140, i32 noundef %145, i32 noundef %148, i32 noundef %151, ptr noundef %152)
  %153 = load ptr, ptr %10, align 8
  %154 = call zeroext i1 @GL_CheckAllErrors(ptr noundef @.str.53, ptr noundef %153, ptr noundef @.str.25, i32 noundef 761, ptr noundef @__func__.GL_UpdateTextureYUV)
  call void @llvm.lifetime.end.p0(i64 8, ptr %21) #4
  call void @llvm.lifetime.end.p0(i64 4, ptr %20) #4
  call void @llvm.lifetime.end.p0(i64 8, ptr %19) #4
  ret i1 %154
}