; Function Attrs: nounwind uwtable
define internal noundef zeroext i1 @GL_UpdateTextureYUV(ptr noundef readonly captures(none) %0, ptr noundef readonly captures(none) %1, ptr noundef readonly captures(none) %2, ptr noundef %3, i32 noundef %4, ptr noundef %5, i32 noundef %6, ptr noundef %7, i32 noundef %8) #0 {
  %10 = getelementptr inbounds nuw i8, ptr %0, i64 696
  %11 = load ptr, ptr %10, align 8
  %12 = getelementptr inbounds nuw i8, ptr %11, i64 40
  %13 = load i32, ptr %12, align 8
  %14 = getelementptr inbounds nuw i8, ptr %1, i64 280
  %15 = load ptr, ptr %14, align 8
  %16 = tail call fastcc zeroext i1 @GL_ActivateRenderer(ptr noundef %0)
  %17 = getelementptr inbounds nuw i8, ptr %11, i64 536
  store ptr null, ptr %17, align 8
  %18 = getelementptr inbounds nuw i8, ptr %11, i64 64
  %19 = load ptr, ptr %18, align 8
  %20 = load i32, ptr %15, align 8
  tail call void %19(i32 noundef %13, i32 noundef %20) #7
  %21 = getelementptr inbounds nuw i8, ptr %11, i64 288
  %22 = load ptr, ptr %21, align 8
  tail call void %22(i32 noundef 3317, i32 noundef 1) #7
  %23 = load ptr, ptr %21, align 8
  tail call void %23(i32 noundef 3314, i32 noundef %4) #7
  %24 = getelementptr inbounds nuw i8, ptr %11, i64 400
  %25 = load ptr, ptr %24, align 8
  %26 = load i32, ptr %2, align 4
  %27 = getelementptr inbounds nuw i8, ptr %2, i64 4
  %28 = load i32, ptr %27, align 4
  %29 = getelementptr inbounds nuw i8, ptr %2, i64 8
  %30 = load i32, ptr %29, align 4
  %31 = getelementptr inbounds nuw i8, ptr %2, i64 12
  %32 = load i32, ptr %31, align 4
  %33 = getelementptr inbounds nuw i8, ptr %15, i64 16
  %34 = load i32, ptr %33, align 8
  %35 = getelementptr inbounds nuw i8, ptr %15, i64 20
  %36 = load i32, ptr %35, align 4
  tail call void %25(i32 noundef %13, i32 noundef 0, i32 noundef %26, i32 noundef %28, i32 noundef %30, i32 noundef %32, i32 noundef %34, i32 noundef %36, ptr noundef %3) #7
  %37 = load ptr, ptr %21, align 8
  tail call void %37(i32 noundef 3314, i32 noundef %6) #7
  %38 = load ptr, ptr %18, align 8
  %39 = getelementptr inbounds nuw i8, ptr %15, i64 88
  %40 = load i32, ptr %39, align 8
  tail call void %38(i32 noundef %13, i32 noundef %40) #7
  %41 = load ptr, ptr %24, align 8
  %42 = load i32, ptr %2, align 4
  %43 = sdiv i32 %42, 2
  %44 = load i32, ptr %27, align 4
  %45 = sdiv i32 %44, 2
  %46 = load i32, ptr %29, align 4
  %47 = add nsw i32 %46, 1
  %48 = sdiv i32 %47, 2
  %49 = load i32, ptr %31, align 4
  %50 = add nsw i32 %49, 1
  %51 = sdiv i32 %50, 2
  %52 = load i32, ptr %33, align 8
  %53 = load i32, ptr %35, align 4
  tail call void %41(i32 noundef %13, i32 noundef 0, i32 noundef %43, i32 noundef %45, i32 noundef %48, i32 noundef %51, i32 noundef %52, i32 noundef %53, ptr noundef %5) #7
  %54 = load ptr, ptr %21, align 8
  tail call void %54(i32 noundef 3314, i32 noundef %8) #7
  %55 = load ptr, ptr %18, align 8
  %56 = getelementptr inbounds nuw i8, ptr %15, i64 96
  %57 = load i32, ptr %56, align 8
  tail call void %55(i32 noundef %13, i32 noundef %57) #7
  %58 = load ptr, ptr %24, align 8
  %59 = load i32, ptr %2, align 4
  %60 = sdiv i32 %59, 2
  %61 = load i32, ptr %27, align 4
  %62 = sdiv i32 %61, 2
  %63 = load i32, ptr %29, align 4
  %64 = add nsw i32 %63, 1
  %65 = sdiv i32 %64, 2
  %66 = load i32, ptr %31, align 4
  %67 = add nsw i32 %66, 1
  %68 = sdiv i32 %67, 2
  %69 = load i32, ptr %33, align 8
  %70 = load i32, ptr %35, align 4
  tail call void %58(i32 noundef %13, i32 noundef 0, i32 noundef %60, i32 noundef %62, i32 noundef %65, i32 noundef %68, i32 noundef %69, i32 noundef %70, ptr noundef %7) #7
  %71 = tail call fastcc zeroext i1 @GL_CheckAllErrors(ptr noundef nonnull @.str.53, ptr noundef %0, i32 noundef 761, ptr noundef nonnull @__func__.GL_UpdateTextureYUV)
  ret i1 %71
}